target datalayout = "e-m:e-p270:32:32-p271:32:32-p272:64:64-i64:64-i128:128-f80:128-n8:16:32:64-S128"
target triple = "x86_64-pc-linux-gnu"

%"struct.std::_Rb_tree_header" = type { %"struct.std::_Rb_tree_node_base", i64 }
%"struct.std::_Rb_tree_node_base" = type { i32, ptr, ptr, ptr }
%"class.pxrInternal_v0_24__pxrReserved__::PcpLifeboat" = type { %"class.std::set.1", %"class.std::set.7" }
%"class.std::set.1" = type { %"class.std::_Rb_tree.2" }
%"class.std::_Rb_tree.2" = type { %"struct.std::_Rb_tree<pxrInternal_v0_24__pxrReserved__::TfRefPtr<pxrInternal_v0_24__pxrReserved__::SdfLayer>, pxrInternal_v0_24__pxrReserved__::TfRefPtr<pxrInternal_v0_24__pxrReserved__::SdfLayer>, std::_Identity<pxrInternal_v0_24__pxrReserved__::TfRefPtr<pxrInternal_v0_24__pxrReserved__::SdfLayer>>, std::less<pxrInternal_v0_24__pxrReserved__::TfRefPtr<pxrInternal_v0_24__pxrReserved__::SdfLayer>>>::_Rb_tree_impl" }
%"struct.std::_Rb_tree<pxrInternal_v0_24__pxrReserved__::TfRefPtr<pxrInternal_v0_24__pxrReserved__::SdfLayer>, pxrInternal_v0_24__pxrReserved__::TfRefPtr<pxrInternal_v0_24__pxrReserved__::SdfLayer>, std::_Identity<pxrInternal_v0_24__pxrReserved__::TfRefPtr<pxrInternal_v0_24__pxrReserved__::SdfLayer>>, std::less<pxrInternal_v0_24__pxrReserved__::TfRefPtr<pxrInternal_v0_24__pxrReserved__::SdfLayer>>>::_Rb_tree_impl" = type { [8 x i8], %"struct.std::_Rb_tree_header" }
%"class.std::set.7" = type { %"class.std::_Rb_tree.8" }
%"class.std::_Rb_tree.8" = type { %"struct.std::_Rb_tree<pxrInternal_v0_24__pxrReserved__::TfRefPtr<pxrInternal_v0_24__pxrReserved__::PcpLayerStack>, pxrInternal_v0_24__pxrReserved__::TfRefPtr<pxrInternal_v0_24__pxrReserved__::PcpLayerStack>, std::_Identity<pxrInternal_v0_24__pxrReserved__::TfRefPtr<pxrInternal_v0_24__pxrReserved__::PcpLayerStack>>, std::less<pxrInternal_v0_24__pxrReserved__::TfRefPtr<pxrInternal_v0_24__pxrReserved__::PcpLayerStack>>>::_Rb_tree_impl" }
%"struct.std::_Rb_tree<pxrInternal_v0_24__pxrReserved__::TfRefPtr<pxrInternal_v0_24__pxrReserved__::PcpLayerStack>, pxrInternal_v0_24__pxrReserved__::TfRefPtr<pxrInternal_v0_24__pxrReserved__::PcpLayerStack>, std::_Identity<pxrInternal_v0_24__pxrReserved__::TfRefPtr<pxrInternal_v0_24__pxrReserved__::PcpLayerStack>>, std::less<pxrInternal_v0_24__pxrReserved__::TfRefPtr<pxrInternal_v0_24__pxrReserved__::PcpLayerStack>>>::_Rb_tree_impl" = type { [8 x i8], %"struct.std::_Rb_tree_header" }
%"class.pxrInternal_v0_24__pxrReserved__::PcpChanges" = type { %"class.std::map", %"class.std::map.24", %"class.std::map.30", %"class.pxrInternal_v0_24__pxrReserved__::PcpLifeboat" }
%"class.std::map" = type { %"class.std::_Rb_tree.19" }
%"class.std::_Rb_tree.19" = type { %"struct.std::_Rb_tree<pxrInternal_v0_24__pxrReserved__::TfWeakPtr<pxrInternal_v0_24__pxrReserved__::PcpLayerStack>, std::pair<const pxrInternal_v0_24__pxrReserved__::TfWeakPtr<pxrInternal_v0_24__pxrReserved__::PcpLayerStack>, pxrInternal_v0_24__pxrReserved__::PcpLayerStackChanges>, std::_Select1st<std::pair<const pxrInternal_v0_24__pxrReserved__::TfWeakPtr<pxrInternal_v0_24__pxrReserved__::PcpLayerStack>, pxrInternal_v0_24__pxrReserved__::PcpLayerStackChanges>>, std::less<pxrInternal_v0_24__pxrReserved__::TfWeakPtr<pxrInternal_v0_24__pxrReserved__::PcpLayerStack>>>::_Rb_tree_impl" }
%"struct.std::_Rb_tree<pxrInternal_v0_24__pxrReserved__::TfWeakPtr<pxrInternal_v0_24__pxrReserved__::PcpLayerStack>, std::pair<const pxrInternal_v0_24__pxrReserved__::TfWeakPtr<pxrInternal_v0_24__pxrReserved__::PcpLayerStack>, pxrInternal_v0_24__pxrReserved__::PcpLayerStackChanges>, std::_Select1st<std::pair<const pxrInternal_v0_24__pxrReserved__::TfWeakPtr<pxrInternal_v0_24__pxrReserved__::PcpLayerStack>, pxrInternal_v0_24__pxrReserved__::PcpLayerStackChanges>>, std::less<pxrInternal_v0_24__pxrReserved__::TfWeakPtr<pxrInternal_v0_24__pxrReserved__::PcpLayerStack>>>::_Rb_tree_impl" = type { [8 x i8], %"struct.std::_Rb_tree_header" }
%"class.std::map.24" = type { %"class.std::_Rb_tree.25" }
%"class.std::_Rb_tree.25" = type { %"struct.std::_Rb_tree<pxrInternal_v0_24__pxrReserved__::PcpCache *, std::pair<pxrInternal_v0_24__pxrReserved__::PcpCache *const, pxrInternal_v0_24__pxrReserved__::PcpCacheChanges>, std::_Select1st<std::pair<pxrInternal_v0_24__pxrReserved__::PcpCache *const, pxrInternal_v0_24__pxrReserved__::PcpCacheChanges>>, std::less<pxrInternal_v0_24__pxrReserved__::PcpCache *>>::_Rb_tree_impl" }
%"struct.std::_Rb_tree<pxrInternal_v0_24__pxrReserved__::PcpCache *, std::pair<pxrInternal_v0_24__pxrReserved__::PcpCache *const, pxrInternal_v0_24__pxrReserved__::PcpCacheChanges>, std::_Select1st<std::pair<pxrInternal_v0_24__pxrReserved__::PcpCache *const, pxrInternal_v0_24__pxrReserved__::PcpCacheChanges>>, std::less<pxrInternal_v0_24__pxrReserved__::PcpCache *>>::_Rb_tree_impl" = type { [8 x i8], %"struct.std::_Rb_tree_header" }
%"class.std::map.30" = type { %"class.std::_Rb_tree.31" }
%"class.std::_Rb_tree.31" = type { %"struct.std::_Rb_tree<pxrInternal_v0_24__pxrReserved__::PcpCache *, std::pair<pxrInternal_v0_24__pxrReserved__::PcpCache *const, std::map<pxrInternal_v0_24__pxrReserved__::SdfPath, pxrInternal_v0_24__pxrReserved__::SdfPath>>, std::_Select1st<std::pair<pxrInternal_v0_24__pxrReserved__::PcpCache *const, std::map<pxrInternal_v0_24__pxrReserved__::SdfPath, pxrInternal_v0_24__pxrReserved__::SdfPath>>>, std::less<pxrInternal_v0_24__pxrReserved__::PcpCache *>>::_Rb_tree_impl" }
%"struct.std::_Rb_tree<pxrInternal_v0_24__pxrReserved__::PcpCache *, std::pair<pxrInternal_v0_24__pxrReserved__::PcpCache *const, std::map<pxrInternal_v0_24__pxrReserved__::SdfPath, pxrInternal_v0_24__pxrReserved__::SdfPath>>, std::_Select1st<std::pair<pxrInternal_v0_24__pxrReserved__::PcpCache *const, std::map<pxrInternal_v0_24__pxrReserved__::SdfPath, pxrInternal_v0_24__pxrReserved__::SdfPath>>>, std::less<pxrInternal_v0_24__pxrReserved__::PcpCache *>>::_Rb_tree_impl" = type { [8 x i8], %"struct.std::_Rb_tree_header" }

; Function Attrs: mustprogress nounwind uwtable
define linkonce_odr noundef zeroext i1 @_ZNKSt8_Rb_treeIPN32pxrInternal_v0_24__pxrReserved__8PcpCacheESt4pairIKS2_St3mapINS0_7SdfPathES6_St4lessIS6_ESaIS3_IKS6_S6_EEEESt10_Select1stISD_ES7_IS2_ESaISD_EE5emptyEv(ptr noundef nonnull align 8 dereferenceable(48) %0) #2 comdat align 2 {
  %2 = alloca ptr, align 8
  store ptr %0, ptr %2, align 8
  %3 = load ptr, ptr %2, align 8
  %4 = getelementptr inbounds nuw %"class.std::_Rb_tree.31", ptr %3, i32 0, i32 0
  %5 = getelementptr inbounds i8, ptr %4, i64 8
  %6 = getelementptr inbounds nuw %"struct.std::_Rb_tree_header", ptr %5, i32 0, i32 1
  %7 = load i64, ptr %6, align 8
  %8 = icmp eq i64 %7, 0
  ret i1 %8
}

; Function Attrs: mustprogress nounwind uwtable
define linkonce_odr noundef zeroext i1 @_ZNKSt8_Rb_treeIPN32pxrInternal_v0_24__pxrReserved__8PcpCacheESt4pairIKS2_NS0_15PcpCacheChangesEESt10_Select1stIS6_ESt4lessIS2_ESaIS6_EE5emptyEv(ptr noundef nonnull align 8 dereferenceable(48) %0) #2 comdat align 2 {
  %2 = alloca ptr, align 8
  store ptr %0, ptr %2, align 8
  %3 = load ptr, ptr %2, align 8
  %4 = getelementptr inbounds nuw %"class.std::_Rb_tree.25", ptr %3, i32 0, i32 0
  %5 = getelementptr inbounds i8, ptr %4, i64 8
  %6 = getelementptr inbounds nuw %"struct.std::_Rb_tree_header", ptr %5, i32 0, i32 1
  %7 = load i64, ptr %6, align 8
  %8 = icmp eq i64 %7, 0
  ret i1 %8
}

; Function Attrs: mustprogress nounwind uwtable
define linkonce_odr noundef zeroext i1 @_ZNKSt8_Rb_treeIN32pxrInternal_v0_24__pxrReserved__9TfWeakPtrINS0_13PcpLayerStackEEESt4pairIKS3_NS0_20PcpLayerStackChangesEESt10_Select1stIS7_ESt4lessIS3_ESaIS7_EE5emptyEv(ptr noundef nonnull align 8 dereferenceable(48) %0) #2 comdat align 2 {
  %2 = alloca ptr, align 8
  store ptr %0, ptr %2, align 8
  %3 = load ptr, ptr %2, align 8
  %4 = getelementptr inbounds nuw %"class.std::_Rb_tree.19", ptr %3, i32 0, i32 0
  %5 = getelementptr inbounds i8, ptr %4, i64 8
  %6 = getelementptr inbounds nuw %"struct.std::_Rb_tree_header", ptr %5, i32 0, i32 1
  %7 = load i64, ptr %6, align 8
  %8 = icmp eq i64 %7, 0
  ret i1 %8
}

; Function Attrs: mustprogress nounwind uwtable
define linkonce_odr noundef zeroext i1 @_ZNKSt3mapIPN32pxrInternal_v0_24__pxrReserved__8PcpCacheES_INS0_7SdfPathES3_St4lessIS3_ESaISt4pairIKS3_S3_EEES4_IS2_ESaIS6_IKS2_SA_EEE5emptyEv(ptr noundef nonnull align 8 dereferenceable(48) %0) #2 comdat align 2 {
  %2 = alloca ptr, align 8
  store ptr %0, ptr %2, align 8
  %3 = load ptr, ptr %2, align 8
  %4 = getelementptr inbounds nuw %"class.std::map.30", ptr %3, i32 0, i32 0
  %5 = call noundef zeroext i1 @_ZNKSt8_Rb_treeIPN32pxrInternal_v0_24__pxrReserved__8PcpCacheESt4pairIKS2_St3mapINS0_7SdfPathES6_St4lessIS6_ESaIS3_IKS6_S6_EEEESt10_Select1stISD_ES7_IS2_ESaISD_EE5emptyEv(ptr noundef nonnull align 8 dereferenceable(48) %4) #13
  ret i1 %5
}

; Function Attrs: mustprogress nounwind uwtable
define linkonce_odr noundef zeroext i1 @_ZNKSt3mapIPN32pxrInternal_v0_24__pxrReserved__8PcpCacheENS0_15PcpCacheChangesESt4lessIS2_ESaISt4pairIKS2_S3_EEE5emptyEv(ptr noundef nonnull align 8 dereferenceable(48) %0) #2 comdat align 2 {
  %2 = alloca ptr, align 8
  store ptr %0, ptr %2, align 8
  %3 = load ptr, ptr %2, align 8
  %4 = getelementptr inbounds nuw %"class.std::map.24", ptr %3, i32 0, i32 0
  %5 = call noundef zeroext i1 @_ZNKSt8_Rb_treeIPN32pxrInternal_v0_24__pxrReserved__8PcpCacheESt4pairIKS2_NS0_15PcpCacheChangesEESt10_Select1stIS6_ESt4lessIS2_ESaIS6_EE5emptyEv(ptr noundef nonnull align 8 dereferenceable(48) %4) #13
  ret i1 %5
}

; Function Attrs: mustprogress nounwind uwtable
define linkonce_odr noundef zeroext i1 @_ZNKSt3mapIN32pxrInternal_v0_24__pxrReserved__9TfWeakPtrINS0_13PcpLayerStackEEENS0_20PcpLayerStackChangesESt4lessIS3_ESaISt4pairIKS3_S4_EEE5emptyEv(ptr noundef nonnull align 8 dereferenceable(48) %0) #2 comdat align 2 {
  %2 = alloca ptr, align 8
  store ptr %0, ptr %2, align 8
  %3 = load ptr, ptr %2, align 8
  %4 = getelementptr inbounds nuw %"class.std::map", ptr %3, i32 0, i32 0
  %5 = call noundef zeroext i1 @_ZNKSt8_Rb_treeIN32pxrInternal_v0_24__pxrReserved__9TfWeakPtrINS0_13PcpLayerStackEEESt4pairIKS3_NS0_20PcpLayerStackChangesEESt10_Select1stIS7_ESt4lessIS3_ESaIS7_EE5emptyEv(ptr noundef nonnull align 8 dereferenceable(48) %4) #13
  ret i1 %5
}

; Function Attrs: mustprogress nounwind uwtable
define noundef zeroext i1 @_ZNK32pxrInternal_v0_24__pxrReserved__10PcpChanges7IsEmptyEv(ptr noundef nonnull align 8 dereferenceable(240) %0) #2 align 2 {
  %2 = alloca ptr, align 8
  store ptr %0, ptr %2, align 8
  %3 = load ptr, ptr %2, align 8
  %4 = getelementptr inbounds nuw %"class.pxrInternal_v0_24__pxrReserved__::PcpChanges", ptr %3, i32 0, i32 0
  %5 = call noundef zeroext i1 @_ZNKSt3mapIN32pxrInternal_v0_24__pxrReserved__9TfWeakPtrINS0_13PcpLayerStackEEENS0_20PcpLayerStackChangesESt4lessIS3_ESaISt4pairIKS3_S4_EEE5emptyEv(ptr noundef nonnull align 8 dereferenceable(48) %4) #13
  br i1 %5, label %6, label %12

6:                                                ; preds = %1
  %7 = getelementptr inbounds nuw %"class.pxrInternal_v0_24__pxrReserved__::PcpChanges", ptr %3, i32 0, i32 1
  %8 = call noundef zeroext i1 @_ZNKSt3mapIPN32pxrInternal_v0_24__pxrReserved__8PcpCacheENS0_15PcpCacheChangesESt4lessIS2_ESaISt4pairIKS2_S3_EEE5emptyEv(ptr noundef nonnull align 8 dereferenceable(48) %7) #13
  br i1 %8, label %9, label %12

9:                                                ; preds = %6
  %10 = getelementptr inbounds nuw %"class.pxrInternal_v0_24__pxrReserved__::PcpChanges", ptr %3, i32 0, i32 2
  %11 = call noundef zeroext i1 @_ZNKSt3mapIPN32pxrInternal_v0_24__pxrReserved__8PcpCacheES_INS0_7SdfPathES3_St4lessIS3_ESaISt4pairIKS3_S3_EEES4_IS2_ESaIS6_IKS2_SA_EEE5emptyEv(ptr noundef nonnull align 8 dereferenceable(48) %10) #13
  br label %12

12:                                               ; preds = %9, %6, %1
  %13 = phi i1 [ false, %6 ], [ false, %1 ], [ %11, %9 ]
  ret i1 %13
}