; Function Attrs: mustprogress nofree norecurse nosync nounwind willreturn memory(argmem: read) uwtable
define noundef zeroext i1 @_ZNK32pxrInternal_v0_24__pxrReserved__10PcpChanges7IsEmptyEv(ptr nocapture noundef nonnull readonly align 8 dereferenceable(240) %0) local_unnamed_addr #9 align 2 {
  %2 = getelementptr inbounds i8, ptr %0, i64 40
  %3 = load i64, ptr %2, align 8
  %4 = icmp eq i64 %3, 0
  %5 = getelementptr inbounds i8, ptr %0, i64 88
  %6 = load i64, ptr %5, align 8
  %7 = icmp eq i64 %6, 0
  %or.cond = select i1 %4, i1 %7, i1 false
  br i1 %or.cond, label %8, label %12

8:                                                ; preds = %1
  %9 = getelementptr inbounds i8, ptr %0, i64 136
  %10 = load i64, ptr %9, align 8
  %11 = icmp eq i64 %10, 0
  br label %12

12:                                               ; preds = %8, %1
  %13 = phi i1 [ false, %1 ], [ %11, %8 ]
  ret i1 %13
}